ccopy_reg
_reconstructor
p0
(c__main__
Caffe_Quantizer
p1
c__builtin__
object
p2
Ntp3
Rp4
(dp5
S'layer_type'
p6
(dp7
S'loss'
p8
S'softmaxwithloss'
p9
sS'relu3'
p10
S'relu'
p11
sS'relu2'
p12
S'relu'
p13
sS'relu1'
p14
S'relu'
p15
sS'conv3'
p16
S'convolution'
p17
sS'conv2'
p18
S'convolution'
p19
sS'conv1'
p20
S'convolution'
p21
sS'ip1'
p22
S'innerproduct'
p23
sS'pool3'
p24
S'pooling'
p25
sS'pool2'
p26
S'pooling'
p27
sS'pool1'
p28
S'pooling'
p29
sS'data'
p30
S'data'
p31
sS'accuracy'
p32
S'accuracy'
p33
ssS'weight_file'
p34
S'/home/navsud01/workspace/CortexM/LITTLE-NN/NEO_SENSORY/cifar10_M4/models/cifar10_full_iter_70000.caffemodel.h5'
p35
sS'act_dec_bits'
p36
(dp37
S'conv3'
p38
I-1
sS'conv2'
p39
I-2
sS'conv1'
p40
I-3
sS'ip1'
p41
I3
sS'data'
p42
I0
sS'accuracy'
p43
I7
ssS'conv_layer'
p44
(lp45
S'conv1'
p46
aS'conv2'
p47
aS'conv3'
p48
asS'end_layer'
p49
(lp50
g42
ag40
ag39
ag38
ag41
ag43
asS'lrn_beta'
p51
(dp52
sS'layer'
p53
(lp54
g42
ag40
aS'pool1'
p55
aS'relu1'
p56
ag39
aS'relu2'
p57
aS'pool2'
p58
ag38
aS'relu3'
p59
aS'pool3'
p60
ag41
ag43
asS'iterations'
p61
I100
sS'bias_lshift'
p62
(dp63
g48
I0
sg47
I0
sg46
I0
sS'ip1'
p64
I5
ssS'lrn_type'
p65
(dp66
sS'act_int_bits'
p67
(dp68
g38
I8
sg39
I9
sg40
I10
sg41
I4
sg42
I7
sg43
I0
ssS'group'
p69
(dp70
S'conv3'
p71
I1
sS'conv2'
p72
I1
sS'conv1'
p73
I1
ssS'bottom_blob'
p74
(dp75
S'loss'
p76
(lp77
S'ip1'
p78
aS'label'
p79
asS'relu3'
p80
(lp81
S'conv3'
p82
asS'relu2'
p83
(lp84
S'conv2'
p85
asS'relu1'
p86
(lp87
S'pool1'
p88
asS'conv3'
p89
(lp90
S'pool2'
p91
asS'conv2'
p92
(lp93
S'pool1'
p94
asS'conv1'
p95
(lp96
S'data'
p97
asS'ip1'
p98
(lp99
S'pool3'
p100
asS'pool3'
p101
(lp102
S'conv3'
p103
asS'pool2'
p104
(lp105
S'conv2'
p106
asS'pool1'
p107
(lp108
S'conv1'
p109
asS'data'
p110
(lp111
sS'accuracy'
p112
(lp113
S'ip1'
p114
aS'label'
p115
assS'model_file'
p116
S'/home/navsud01/workspace/CortexM/LITTLE-NN/NEO_SENSORY/cifar10_M4/models/cifar10_full_train_test.prototxt'
p117
sS'pad'
p118
(dp119
S'conv3'
p120
L2L
sS'conv2'
p121
L2L
sS'conv1'
p122
L2L
sS'pool3'
p123
I0
sS'pool2'
p124
I0
sS'pool1'
p125
I0
ssS'data_layer'
p126
S'data'
p127
sS'gpu'
p128
I01
sS'num_wts'
p129
(dp130
sS'accuracy_layer'
p131
g43
sS'ip_layer'
p132
(lp133
g64
asS'lrn_size'
p134
(dp135
sS'act_rshift'
p136
(dp137
g48
I8
sg47
I8
sg46
I11
sg64
I7
ssS'wt_dec_bits'
p138
(dp139
g48
I9
sg47
I9
sg46
I8
sg64
I11
ssS'lrn_alpha'
p140
(dp141
sS'quant_weight_file'
p142
S'/home/navsud01/workspace/CortexM/LITTLE-NN/NEO_SENSORY/cifar10_M4/models/quantized_cifar10_full_iter_70000.caffemodel'
p143
sS'top_blob'
p144
(dp145
S'loss'
p146
(lp147
S'loss'
p148
asg59
(lp149
S'conv3'
p150
asg57
(lp151
S'conv2'
p152
asg56
(lp153
S'pool1'
p154
asg38
(lp155
S'conv3'
p156
asg39
(lp157
S'conv2'
p158
asg40
(lp159
S'conv1'
p160
asg41
(lp161
S'ip1'
p162
asg60
(lp163
S'pool3'
p164
asg58
(lp165
S'pool2'
p166
asg55
(lp167
S'pool1'
p168
asg42
(lp169
S'data'
p170
aS'label'
p171
asS'accuracy'
p172
(lp173
S'accuracy'
p174
assS'bias_int_bits'
p175
(dp176
g48
I0
sg47
I1
sg46
I-1
sg64
I2
ssS'bias_dec_bits'
p177
(dp178
g48
I7
sg47
I6
sg46
I8
sg64
I5
ssS'start_layer'
p179
(lp180
S''
p181
ag40
ag55
ag57
ag59
ag43
asS'pool_type'
p182
(dp183
S'pool3'
p184
I1
sS'pool2'
p185
I1
sS'pool1'
p186
I0
ssS'stride'
p187
(dp188
S'conv3'
p189
L1L
sS'conv2'
p190
L1L
sS'conv1'
p191
L1L
sS'pool3'
p192
I2
sS'pool2'
p193
I2
sS'pool1'
p194
I2
ssS'layer_shape'
p195
(dp196
S'loss'
p197
(tsS'relu3'
p198
(I100
I32
I8
I8
tp199
sS'relu2'
p200
(I100
I16
I16
I16
tp201
sS'relu1'
p202
(I100
I32
I16
I16
tp203
sS'conv3'
p204
(I100
I32
I8
I8
tp205
sS'conv2'
p206
(I100
I16
I16
I16
tp207
sS'conv1'
p208
(I100
I32
I32
I32
tp209
sS'ip1'
p210
(I100
I10
tp211
sS'pool3'
p212
(I100
I32
I4
I4
tp213
sS'pool2'
p214
(I100
I16
I8
I8
tp215
sS'pool1'
p216
(I100
I32
I16
I16
tp217
sS'data'
p218
(I100
I3
I32
I32
tp219
sS'accuracy'
p220
(tssS'num_ops'
p221
(dp222
sS'wt_int_bits'
p223
(dp224
g48
I-2
sg47
I-2
sg46
I-1
sg64
I-4
ssS'kernel_size'
p225
(dp226
S'conv3'
p227
L5L
sS'conv2'
p228
L5L
sS'conv1'
p229
L5L
sS'pool3'
p230
I3
sS'pool2'
p231
I3
sS'pool1'
p232
I3
ssb.